target datalayout = "e-m:e-p270:32:32-p271:32:32-p272:64:64-i64:64-i128:128-f80:128-n8:16:32:64-S128"
target triple = "x86_64-pc-linux-gnu"

%struct.WC_PKCS12 = type { ptr, ptr, ptr, i32, i8 }
%struct.MacData = type { ptr, ptr, i32, i32, i32, i32 }

; Function Attrs: nounwind uwtable
define internal i32 @GetSignData(ptr noundef %0, ptr noundef %1, ptr noundef %2, i32 noundef %3) #0 {
  %5 = alloca i32, align 4
  %6 = alloca ptr, align 8
  %7 = alloca ptr, align 8
  %8 = alloca ptr, align 8
  %9 = alloca i32, align 4
  %10 = alloca ptr, align 8
  %11 = alloca i32, align 4
  %12 = alloca i32, align 4
  %13 = alloca i32, align 4
  %14 = alloca i32, align 4
  %15 = alloca i8, align 1
  %16 = alloca i32, align 4
  %17 = alloca ptr, align 8
  %18 = alloca ptr, align 8
  %19 = alloca ptr, align 8
  %20 = alloca ptr, align 8
  %21 = alloca i32, align 4
  %22 = alloca ptr, align 8
  %23 = alloca ptr, align 8
  store ptr %0, ptr %6, align 8, !tbaa !7
  store ptr %1, ptr %7, align 8, !tbaa !32
  store ptr %2, ptr %8, align 8, !tbaa !37
  store i32 %3, ptr %9, align 4, !tbaa !24
  call void @llvm.lifetime.start.p0(i64 8, ptr %10) #7
  call void @llvm.lifetime.start.p0(i64 4, ptr %11) #7
  %24 = load ptr, ptr %8, align 8, !tbaa !37
  %25 = load i32, ptr %24, align 4, !tbaa !24
  store i32 %25, ptr %11, align 4, !tbaa !24
  call void @llvm.lifetime.start.p0(i64 4, ptr %12) #7
  store i32 0, ptr %12, align 4, !tbaa !24
  call void @llvm.lifetime.start.p0(i64 4, ptr %13) #7
  call void @llvm.lifetime.start.p0(i64 4, ptr %14) #7
  call void @llvm.lifetime.start.p0(i64 1, ptr %15) #7
  %26 = load ptr, ptr %7, align 8, !tbaa !32
  %27 = load i32, ptr %9, align 4, !tbaa !24
  %28 = call i32 @GetSequence(ptr noundef %26, ptr noundef %11, ptr noundef %13, i32 noundef %27)
  %29 = icmp sle i32 %28, 0
  br i1 %29, label %30, label %34

30:                                               ; preds = %4
  br label %31

31:                                               ; preds = %30
  br label %32

32:                                               ; preds = %31
  br label %33

33:                                               ; preds = %32
  store i32 -140, ptr %5, align 4
  store i32 1, ptr %16, align 4
  br label %261

34:                                               ; preds = %4
  %35 = call ptr @wolfSSL_Malloc(i64 noundef 32)
  store ptr %35, ptr %10, align 8, !tbaa !34
  %36 = load ptr, ptr %10, align 8, !tbaa !34
  %37 = icmp eq ptr %36, null
  br i1 %37, label %38, label %39

38:                                               ; preds = %34
  store i32 -125, ptr %5, align 4
  store i32 1, ptr %16, align 4
  br label %261

39:                                               ; preds = %34
  %40 = load ptr, ptr %10, align 8, !tbaa !34
  call void @llvm.memset.p0.i64(ptr align 8 %40, i8 0, i64 32, i1 false)
  %41 = load ptr, ptr %7, align 8, !tbaa !32
  %42 = load i32, ptr %9, align 4, !tbaa !24
  %43 = call i32 @GetAlgoId(ptr noundef %41, ptr noundef %11, ptr noundef %12, i32 noundef 21, i32 noundef %42)
  store i32 %43, ptr %14, align 4, !tbaa !24
  %44 = icmp slt i32 %43, 0
  br i1 %44, label %45, label %59

45:                                               ; preds = %39
  br label %46

46:                                               ; preds = %45
  br label %47

47:                                               ; preds = %46
  br label %48

48:                                               ; preds = %47
  br label %49

49:                                               ; preds = %48
  call void @llvm.lifetime.start.p0(i64 8, ptr %17) #7
  %50 = load ptr, ptr %10, align 8, !tbaa !34
  store ptr %50, ptr %17, align 8, !tbaa !3
  %51 = load ptr, ptr %17, align 8, !tbaa !3
  %52 = icmp ne ptr %51, null
  br i1 %52, label %53, label %55

53:                                               ; preds = %49
  %54 = load ptr, ptr %17, align 8, !tbaa !3
  call void @wolfSSL_Free(ptr noundef %54)
  br label %55

55:                                               ; preds = %53, %49
  call void @llvm.lifetime.end.p0(i64 8, ptr %17) #7
  br label %56

56:                                               ; preds = %55
  br label %57

57:                                               ; preds = %56
  %58 = load i32, ptr %14, align 4, !tbaa !24
  store i32 %58, ptr %5, align 4
  store i32 1, ptr %16, align 4
  br label %261

59:                                               ; preds = %39
  %60 = load i32, ptr %12, align 4, !tbaa !24
  %61 = load ptr, ptr %10, align 8, !tbaa !34
  %62 = getelementptr inbounds nuw %struct.MacData, ptr %61, i32 0, i32 2
  store i32 %60, ptr %62, align 8, !tbaa !45
  %63 = load ptr, ptr %7, align 8, !tbaa !32
  %64 = load i32, ptr %9, align 4, !tbaa !24
  %65 = call i32 @GetASNTag(ptr noundef %63, ptr noundef %11, ptr noundef %15, i32 noundef %64)
  %66 = icmp slt i32 %65, 0
  br i1 %66, label %67, label %77

67:                                               ; preds = %59
  br label %68

68:                                               ; preds = %67
  call void @llvm.lifetime.start.p0(i64 8, ptr %18) #7
  %69 = load ptr, ptr %10, align 8, !tbaa !34
  store ptr %69, ptr %18, align 8, !tbaa !3
  %70 = load ptr, ptr %18, align 8, !tbaa !3
  %71 = icmp ne ptr %70, null
  br i1 %71, label %72, label %74

72:                                               ; preds = %68
  %73 = load ptr, ptr %18, align 8, !tbaa !3
  call void @wolfSSL_Free(ptr noundef %73)
  br label %74

74:                                               ; preds = %72, %68
  call void @llvm.lifetime.end.p0(i64 8, ptr %18) #7
  br label %75

75:                                               ; preds = %74
  br label %76

76:                                               ; preds = %75
  store i32 -140, ptr %5, align 4
  store i32 1, ptr %16, align 4
  br label %261

77:                                               ; preds = %59
  %78 = load i8, ptr %15, align 1, !tbaa !40
  %79 = zext i8 %78 to i32
  %80 = icmp ne i32 %79, 4
  br i1 %80, label %81, label %94

81:                                               ; preds = %77
  br label %82

82:                                               ; preds = %81
  br label %83

83:                                               ; preds = %82
  br label %84

84:                                               ; preds = %83
  br label %85

85:                                               ; preds = %84
  call void @llvm.lifetime.start.p0(i64 8, ptr %19) #7
  %86 = load ptr, ptr %10, align 8, !tbaa !34
  store ptr %86, ptr %19, align 8, !tbaa !3
  %87 = load ptr, ptr %19, align 8, !tbaa !3
  %88 = icmp ne ptr %87, null
  br i1 %88, label %89, label %91

89:                                               ; preds = %85
  %90 = load ptr, ptr %19, align 8, !tbaa !3
  call void @wolfSSL_Free(ptr noundef %90)
  br label %91

91:                                               ; preds = %89, %85
  call void @llvm.lifetime.end.p0(i64 8, ptr %19) #7
  br label %92

92:                                               ; preds = %91
  br label %93

93:                                               ; preds = %92
  store i32 -140, ptr %5, align 4
  store i32 1, ptr %16, align 4
  br label %261

94:                                               ; preds = %77
  %95 = load ptr, ptr %7, align 8, !tbaa !32
  %96 = load i32, ptr %9, align 4, !tbaa !24
  %97 = call i32 @GetLength(ptr noundef %95, ptr noundef %11, ptr noundef %13, i32 noundef %96)
  %98 = icmp sle i32 %97, 0
  br i1 %98, label %99, label %109

99:                                               ; preds = %94
  br label %100

100:                                              ; preds = %99
  call void @llvm.lifetime.start.p0(i64 8, ptr %20) #7
  %101 = load ptr, ptr %10, align 8, !tbaa !34
  store ptr %101, ptr %20, align 8, !tbaa !3
  %102 = load ptr, ptr %20, align 8, !tbaa !3
  %103 = icmp ne ptr %102, null
  br i1 %103, label %104, label %106

104:                                              ; preds = %100
  %105 = load ptr, ptr %20, align 8, !tbaa !3
  call void @wolfSSL_Free(ptr noundef %105)
  br label %106

106:                                              ; preds = %104, %100
  call void @llvm.lifetime.end.p0(i64 8, ptr %20) #7
  br label %107

107:                                              ; preds = %106
  br label %108

108:                                              ; preds = %107
  store i32 -140, ptr %5, align 4
  store i32 1, ptr %16, align 4
  br label %261

109:                                              ; preds = %94
  %110 = load i32, ptr %13, align 4, !tbaa !24
  %111 = load ptr, ptr %10, align 8, !tbaa !34
  %112 = getelementptr inbounds nuw %struct.MacData, ptr %111, i32 0, i32 3
  store i32 %110, ptr %112, align 4, !tbaa !35
  %113 = load ptr, ptr %10, align 8, !tbaa !34
  %114 = getelementptr inbounds nuw %struct.MacData, ptr %113, i32 0, i32 3
  %115 = load i32, ptr %114, align 4, !tbaa !35
  %116 = zext i32 %115 to i64
  %117 = call ptr @wolfSSL_Malloc(i64 noundef %116)
  %118 = load ptr, ptr %10, align 8, !tbaa !34
  %119 = getelementptr inbounds nuw %struct.MacData, ptr %118, i32 0, i32 0
  store ptr %117, ptr %119, align 8, !tbaa !16
  %120 = load ptr, ptr %10, align 8, !tbaa !34
  %121 = getelementptr inbounds nuw %struct.MacData, ptr %120, i32 0, i32 0
  %122 = load ptr, ptr %121, align 8, !tbaa !16
  %123 = icmp eq ptr %122, null
  br i1 %123, label %132, label %124

124:                                              ; preds = %109
  %125 = load ptr, ptr %10, align 8, !tbaa !34
  %126 = getelementptr inbounds nuw %struct.MacData, ptr %125, i32 0, i32 3
  %127 = load i32, ptr %126, align 4, !tbaa !35
  %128 = load i32, ptr %11, align 4, !tbaa !24
  %129 = add i32 %127, %128
  %130 = load i32, ptr %9, align 4, !tbaa !24
  %131 = icmp ugt i32 %129, %130
  br i1 %131, label %132, label %133

132:                                              ; preds = %124, %109
  store i32 -125, ptr %14, align 4, !tbaa !24
  br label %231

133:                                              ; preds = %124
  %134 = load ptr, ptr %10, align 8, !tbaa !34
  %135 = getelementptr inbounds nuw %struct.MacData, ptr %134, i32 0, i32 0
  %136 = load ptr, ptr %135, align 8, !tbaa !16
  %137 = load ptr, ptr %7, align 8, !tbaa !32
  %138 = load i32, ptr %11, align 4, !tbaa !24
  %139 = zext i32 %138 to i64
  %140 = getelementptr inbounds nuw i8, ptr %137, i64 %139
  %141 = load ptr, ptr %10, align 8, !tbaa !34
  %142 = getelementptr inbounds nuw %struct.MacData, ptr %141, i32 0, i32 3
  %143 = load i32, ptr %142, align 4, !tbaa !35
  %144 = zext i32 %143 to i64
  call void @llvm.memcpy.p0.p0.i64(ptr align 1 %136, ptr align 1 %140, i64 %144, i1 false)
  %145 = load ptr, ptr %10, align 8, !tbaa !34
  %146 = getelementptr inbounds nuw %struct.MacData, ptr %145, i32 0, i32 3
  %147 = load i32, ptr %146, align 4, !tbaa !35
  %148 = load i32, ptr %11, align 4, !tbaa !24
  %149 = add i32 %148, %147
  store i32 %149, ptr %11, align 4, !tbaa !24
  %150 = load ptr, ptr %7, align 8, !tbaa !32
  %151 = load i32, ptr %9, align 4, !tbaa !24
  %152 = call i32 @GetASNTag(ptr noundef %150, ptr noundef %11, ptr noundef %15, i32 noundef %151)
  %153 = icmp slt i32 %152, 0
  br i1 %153, label %154, label %155

154:                                              ; preds = %133
  store i32 -140, ptr %14, align 4, !tbaa !24
  br label %231

155:                                              ; preds = %133
  %156 = load i8, ptr %15, align 1, !tbaa !40
  %157 = zext i8 %156 to i32
  %158 = icmp ne i32 %157, 4
  br i1 %158, label %159, label %163

159:                                              ; preds = %155
  br label %160

160:                                              ; preds = %159
  br label %161

161:                                              ; preds = %160
  br label %162

162:                                              ; preds = %161
  store i32 -140, ptr %14, align 4, !tbaa !24
  br label %231

163:                                              ; preds = %155
  %164 = load ptr, ptr %7, align 8, !tbaa !32
  %165 = load i32, ptr %9, align 4, !tbaa !24
  %166 = call i32 @GetLength(ptr noundef %164, ptr noundef %11, ptr noundef %13, i32 noundef %165)
  store i32 %166, ptr %14, align 4, !tbaa !24
  %167 = icmp slt i32 %166, 0
  br i1 %167, label %168, label %169

168:                                              ; preds = %163
  br label %231

169:                                              ; preds = %163
  %170 = load i32, ptr %13, align 4, !tbaa !24
  %171 = load ptr, ptr %10, align 8, !tbaa !34
  %172 = getelementptr inbounds nuw %struct.MacData, ptr %171, i32 0, i32 4
  store i32 %170, ptr %172, align 8, !tbaa !46
  %173 = load ptr, ptr %10, align 8, !tbaa !34
  %174 = getelementptr inbounds nuw %struct.MacData, ptr %173, i32 0, i32 4
  %175 = load i32, ptr %174, align 8, !tbaa !46
  %176 = zext i32 %175 to i64
  %177 = call ptr @wolfSSL_Malloc(i64 noundef %176)
  %178 = load ptr, ptr %10, align 8, !tbaa !34
  %179 = getelementptr inbounds nuw %struct.MacData, ptr %178, i32 0, i32 1
  store ptr %177, ptr %179, align 8, !tbaa !19
  %180 = load ptr, ptr %10, align 8, !tbaa !34
  %181 = getelementptr inbounds nuw %struct.MacData, ptr %180, i32 0, i32 1
  %182 = load ptr, ptr %181, align 8, !tbaa !19
  %183 = icmp eq ptr %182, null
  br i1 %183, label %192, label %184

184:                                              ; preds = %169
  %185 = load ptr, ptr %10, align 8, !tbaa !34
  %186 = getelementptr inbounds nuw %struct.MacData, ptr %185, i32 0, i32 4
  %187 = load i32, ptr %186, align 8, !tbaa !46
  %188 = load i32, ptr %11, align 4, !tbaa !24
  %189 = add i32 %187, %188
  %190 = load i32, ptr %9, align 4, !tbaa !24
  %191 = icmp ugt i32 %189, %190
  br i1 %191, label %192, label %193

192:                                              ; preds = %184, %169
  store i32 -125, ptr %14, align 4, !tbaa !24
  br label %231

193:                                              ; preds = %184
  %194 = load ptr, ptr %10, align 8, !tbaa !34
  %195 = getelementptr inbounds nuw %struct.MacData, ptr %194, i32 0, i32 1
  %196 = load ptr, ptr %195, align 8, !tbaa !19
  %197 = load ptr, ptr %7, align 8, !tbaa !32
  %198 = load i32, ptr %11, align 4, !tbaa !24
  %199 = zext i32 %198 to i64
  %200 = getelementptr inbounds nuw i8, ptr %197, i64 %199
  %201 = load ptr, ptr %10, align 8, !tbaa !34
  %202 = getelementptr inbounds nuw %struct.MacData, ptr %201, i32 0, i32 4
  %203 = load i32, ptr %202, align 8, !tbaa !46
  %204 = zext i32 %203 to i64
  call void @llvm.memcpy.p0.p0.i64(ptr align 1 %196, ptr align 1 %200, i64 %204, i1 false)
  %205 = load ptr, ptr %10, align 8, !tbaa !34
  %206 = getelementptr inbounds nuw %struct.MacData, ptr %205, i32 0, i32 4
  %207 = load i32, ptr %206, align 8, !tbaa !46
  %208 = load i32, ptr %11, align 4, !tbaa !24
  %209 = add i32 %208, %207
  store i32 %209, ptr %11, align 4, !tbaa !24
  %210 = load ptr, ptr %10, align 8, !tbaa !34
  %211 = getelementptr inbounds nuw %struct.MacData, ptr %210, i32 0, i32 5
  store i32 1, ptr %211, align 4, !tbaa !47
  %212 = load i32, ptr %11, align 4, !tbaa !24
  %213 = load i32, ptr %9, align 4, !tbaa !24
  %214 = icmp ult i32 %212, %213
  br i1 %214, label %215, label %225

215:                                              ; preds = %193
  call void @llvm.lifetime.start.p0(i64 4, ptr %21) #7
  store i32 0, ptr %21, align 4, !tbaa !24
  %216 = load ptr, ptr %7, align 8, !tbaa !32
  %217 = load i32, ptr %9, align 4, !tbaa !24
  %218 = call i32 @GetShortInt(ptr noundef %216, ptr noundef %11, ptr noundef %21, i32 noundef %217)
  %219 = icmp sge i32 %218, 0
  br i1 %219, label %220, label %224

220:                                              ; preds = %215
  %221 = load i32, ptr %21, align 4, !tbaa !24
  %222 = load ptr, ptr %10, align 8, !tbaa !34
  %223 = getelementptr inbounds nuw %struct.MacData, ptr %222, i32 0, i32 5
  store i32 %221, ptr %223, align 4, !tbaa !47
  br label %224

224:                                              ; preds = %220, %215
  call void @llvm.lifetime.end.p0(i64 4, ptr %21) #7
  br label %225

225:                                              ; preds = %224, %193
  %226 = load i32, ptr %11, align 4, !tbaa !24
  %227 = load ptr, ptr %8, align 8, !tbaa !37
  store i32 %226, ptr %227, align 4, !tbaa !24
  %228 = load ptr, ptr %10, align 8, !tbaa !34
  %229 = load ptr, ptr %6, align 8, !tbaa !7
  %230 = getelementptr inbounds nuw %struct.WC_PKCS12, ptr %229, i32 0, i32 2
  store ptr %228, ptr %230, align 8, !tbaa !15
  store i32 0, ptr %14, align 4, !tbaa !24
  br label %231

231:                                              ; preds = %225, %192, %168, %162, %154, %132
  %232 = load i32, ptr %14, align 4, !tbaa !24
  %233 = icmp ne i32 %232, 0
  br i1 %233, label %234, label %259

234:                                              ; preds = %231
  %235 = load ptr, ptr %10, align 8, !tbaa !34
  %236 = icmp ne ptr %235, null
  br i1 %236, label %237, label %258

237:                                              ; preds = %234
  br label %238

238:                                              ; preds = %237
  call void @llvm.lifetime.start.p0(i64 8, ptr %22) #7
  %239 = load ptr, ptr %10, align 8, !tbaa !34
  %240 = getelementptr inbounds nuw %struct.MacData, ptr %239, i32 0, i32 0
  %241 = load ptr, ptr %240, align 8, !tbaa !16
  store ptr %241, ptr %22, align 8, !tbaa !3
  %242 = load ptr, ptr %22, align 8, !tbaa !3
  %243 = icmp ne ptr %242, null
  br i1 %243, label %244, label %246

244:                                              ; preds = %238
  %245 = load ptr, ptr %22, align 8, !tbaa !3
  call void @wolfSSL_Free(ptr noundef %245)
  br label %246

246:                                              ; preds = %244, %238
  call void @llvm.lifetime.end.p0(i64 8, ptr %22) #7
  br label %247

247:                                              ; preds = %246
  br label %248

248:                                              ; preds = %247
  br label %249

249:                                              ; preds = %248
  call void @llvm.lifetime.start.p0(i64 8, ptr %23) #7
  %250 = load ptr, ptr %10, align 8, !tbaa !34
  store ptr %250, ptr %23, align 8, !tbaa !3
  %251 = load ptr, ptr %23, align 8, !tbaa !3
  %252 = icmp ne ptr %251, null
  br i1 %252, label %253, label %255

253:                                              ; preds = %249
  %254 = load ptr, ptr %23, align 8, !tbaa !3
  call void @wolfSSL_Free(ptr noundef %254)
  br label %255

255:                                              ; preds = %253, %249
  call void @llvm.lifetime.end.p0(i64 8, ptr %23) #7
  br label %256

256:                                              ; preds = %255
  br label %257

257:                                              ; preds = %256
  br label %258

258:                                              ; preds = %257, %234
  br label %259

259:                                              ; preds = %258, %231
  %260 = load i32, ptr %14, align 4, !tbaa !24
  store i32 %260, ptr %5, align 4
  store i32 1, ptr %16, align 4
  br label %261

261:                                              ; preds = %259, %108, %93, %76, %57, %38, %33
  call void @llvm.lifetime.end.p0(i64 1, ptr %15) #7
  call void @llvm.lifetime.end.p0(i64 4, ptr %14) #7
  call void @llvm.lifetime.end.p0(i64 4, ptr %13) #7
  call void @llvm.lifetime.end.p0(i64 4, ptr %12) #7
  call void @llvm.lifetime.end.p0(i64 4, ptr %11) #7
  call void @llvm.lifetime.end.p0(i64 8, ptr %10) #7
  %262 = load i32, ptr %5, align 4
  ret i32 %262
}