; Function Attrs: nounwind uwtable
define internal fastcc range(i32 -2147483648, 1) i32 @GetSignData(ptr noundef nonnull writeonly captures(none) %0, ptr noundef nonnull %1, ptr noundef nonnull captures(none) %2, i32 noundef %3) unnamed_addr #0 {
  %5 = alloca i32, align 4
  %6 = alloca i32, align 4
  %7 = alloca i32, align 4
  %8 = alloca i8, align 1
  %9 = alloca i32, align 4
  call void @llvm.lifetime.start.p0(i64 4, ptr nonnull %5) #9
  %10 = load i32, ptr %2, align 4, !tbaa !28
  store i32 %10, ptr %5, align 4, !tbaa !28
  call void @llvm.lifetime.start.p0(i64 4, ptr nonnull %6) #9
  store i32 0, ptr %6, align 4, !tbaa !28
  call void @llvm.lifetime.start.p0(i64 4, ptr nonnull %7) #9
  call void @llvm.lifetime.start.p0(i64 1, ptr nonnull %8) #9
  %11 = call i32 @GetSequence(ptr noundef nonnull %1, ptr noundef nonnull %5, ptr noundef nonnull %7, i32 noundef %3) #9
  %12 = icmp slt i32 %11, 1
  br i1 %12, label %89, label %13

13:                                               ; preds = %4
  %14 = call ptr @wolfSSL_Malloc(i64 noundef 32) #9
  %15 = icmp eq ptr %14, null
  br i1 %15, label %89, label %16

16:                                               ; preds = %13
  call void @llvm.memset.p0.i64(ptr noundef nonnull align 8 dereferenceable(32) %14, i8 0, i64 32, i1 false)
  %17 = call i32 @GetAlgoId(ptr noundef nonnull %1, ptr noundef nonnull %5, ptr noundef nonnull %6, i32 noundef 21, i32 noundef %3) #9
  %18 = icmp slt i32 %17, 0
  br i1 %18, label %19, label %20

19:                                               ; preds = %16
  call void @wolfSSL_Free(ptr noundef nonnull %14) #9
  br label %89

20:                                               ; preds = %16
  %21 = load i32, ptr %6, align 4, !tbaa !28
  %22 = getelementptr inbounds nuw i8, ptr %14, i64 16
  store i32 %21, ptr %22, align 8, !tbaa !36
  %23 = call i32 @GetASNTag(ptr noundef nonnull %1, ptr noundef nonnull %5, ptr noundef nonnull %8, i32 noundef %3) #9
  %24 = icmp slt i32 %23, 0
  br i1 %24, label %25, label %26

25:                                               ; preds = %20
  call void @wolfSSL_Free(ptr noundef nonnull %14) #9
  br label %89

26:                                               ; preds = %20
  %27 = load i8, ptr %8, align 1, !tbaa !31
  %.not = icmp eq i8 %27, 4
  br i1 %.not, label %29, label %28

28:                                               ; preds = %26
  call void @wolfSSL_Free(ptr noundef nonnull %14) #9
  br label %89

29:                                               ; preds = %26
  %30 = call i32 @GetLength(ptr noundef nonnull %1, ptr noundef nonnull %5, ptr noundef nonnull %7, i32 noundef %3) #9
  %31 = icmp slt i32 %30, 1
  br i1 %31, label %32, label %33

32:                                               ; preds = %29
  call void @wolfSSL_Free(ptr noundef nonnull %14) #9
  br label %89

33:                                               ; preds = %29
  %34 = load i32, ptr %7, align 4, !tbaa !28
  %35 = getelementptr inbounds nuw i8, ptr %14, i64 20
  store i32 %34, ptr %35, align 4, !tbaa !27
  %36 = zext i32 %34 to i64
  %37 = call ptr @wolfSSL_Malloc(i64 noundef %36) #9
  store ptr %37, ptr %14, align 8, !tbaa !23
  %38 = icmp eq ptr %37, null
  br i1 %38, label %.thread81, label %39

39:                                               ; preds = %33
  %40 = load i32, ptr %35, align 4, !tbaa !27
  %41 = load i32, ptr %5, align 4, !tbaa !28
  %42 = add i32 %41, %40
  %43 = icmp ugt i32 %42, %3
  br i1 %43, label %87, label %44

44:                                               ; preds = %39
  %45 = zext i32 %41 to i64
  %46 = getelementptr inbounds nuw i8, ptr %1, i64 %45
  %47 = zext i32 %40 to i64
  call void @llvm.memcpy.p0.p0.i64(ptr nonnull align 1 %37, ptr nonnull align 1 %46, i64 %47, i1 false)
  %48 = load i32, ptr %35, align 4, !tbaa !27
  %49 = load i32, ptr %5, align 4, !tbaa !28
  %50 = add i32 %49, %48
  store i32 %50, ptr %5, align 4, !tbaa !28
  %51 = call i32 @GetASNTag(ptr noundef nonnull %1, ptr noundef nonnull %5, ptr noundef nonnull %8, i32 noundef %3) #9
  %52 = icmp sgt i32 %51, -1
  %53 = load i8, ptr %8, align 1
  %.not75 = icmp eq i8 %53, 4
  %or.cond = select i1 %52, i1 %.not75, i1 false
  br i1 %or.cond, label %54, label %87

54:                                               ; preds = %44
  %55 = call i32 @GetLength(ptr noundef nonnull %1, ptr noundef nonnull %5, ptr noundef nonnull %7, i32 noundef %3) #9
  %56 = icmp slt i32 %55, 0
  br i1 %56, label %87, label %57

57:                                               ; preds = %54
  %58 = load i32, ptr %7, align 4, !tbaa !28
  %59 = getelementptr inbounds nuw i8, ptr %14, i64 24
  store i32 %58, ptr %59, align 8, !tbaa !37
  %60 = zext i32 %58 to i64
  %61 = call ptr @wolfSSL_Malloc(i64 noundef %60) #9
  %62 = getelementptr inbounds nuw i8, ptr %14, i64 8
  store ptr %61, ptr %62, align 8, !tbaa !25
  %63 = icmp eq ptr %61, null
  br i1 %63, label %87, label %64

64:                                               ; preds = %57
  %65 = load i32, ptr %59, align 8, !tbaa !37
  %66 = load i32, ptr %5, align 4, !tbaa !28
  %67 = add i32 %66, %65
  %68 = icmp ugt i32 %67, %3
  br i1 %68, label %87, label %69

69:                                               ; preds = %64
  %70 = zext i32 %66 to i64
  %71 = getelementptr inbounds nuw i8, ptr %1, i64 %70
  %72 = zext i32 %65 to i64
  call void @llvm.memcpy.p0.p0.i64(ptr nonnull align 1 %61, ptr nonnull align 1 %71, i64 %72, i1 false)
  %73 = load i32, ptr %59, align 8, !tbaa !37
  %74 = load i32, ptr %5, align 4, !tbaa !28
  %75 = add i32 %74, %73
  store i32 %75, ptr %5, align 4, !tbaa !28
  %76 = getelementptr inbounds nuw i8, ptr %14, i64 28
  store i32 1, ptr %76, align 4, !tbaa !38
  %77 = icmp ult i32 %75, %3
  br i1 %77, label %78, label %84

78:                                               ; preds = %69
  call void @llvm.lifetime.start.p0(i64 4, ptr nonnull %9) #9
  store i32 0, ptr %9, align 4, !tbaa !28
  %79 = call i32 @GetShortInt(ptr noundef nonnull %1, ptr noundef nonnull %5, ptr noundef nonnull %9, i32 noundef %3) #9
  %80 = icmp sgt i32 %79, -1
  br i1 %80, label %81, label %83

81:                                               ; preds = %78
  %82 = load i32, ptr %9, align 4, !tbaa !28
  store i32 %82, ptr %76, align 4, !tbaa !38
  br label %83

83:                                               ; preds = %81, %78
  call void @llvm.lifetime.end.p0(i64 4, ptr nonnull %9) #9
  %.pre = load i32, ptr %5, align 4, !tbaa !28
  br label %84

84:                                               ; preds = %69, %83
  %85 = phi i32 [ %75, %69 ], [ %.pre, %83 ]
  store i32 %85, ptr %2, align 4, !tbaa !28
  %86 = getelementptr inbounds nuw i8, ptr %0, i64 16
  store ptr %14, ptr %86, align 8, !tbaa !22
  br label %89

87:                                               ; preds = %54, %39, %44, %64, %57
  %.067.ph.ph = phi i32 [ %55, %54 ], [ -125, %39 ], [ -140, %44 ], [ -125, %64 ], [ -125, %57 ]
  %.pr = load ptr, ptr %14, align 8, !tbaa !23
  %.not77 = icmp eq ptr %.pr, null
  br i1 %.not77, label %.thread81, label %88

88:                                               ; preds = %87
  call void @wolfSSL_Free(ptr noundef nonnull %.pr) #9
  br label %.thread81

.thread81:                                        ; preds = %33, %87, %88
  %.067.ph84 = phi i32 [ %.067.ph.ph, %87 ], [ %.067.ph.ph, %88 ], [ -125, %33 ]
  call void @wolfSSL_Free(ptr noundef nonnull %14) #9
  br label %89

89:                                               ; preds = %84, %.thread81, %13, %4, %32, %28, %25, %19
  %.0 = phi i32 [ %17, %19 ], [ -140, %25 ], [ -140, %28 ], [ -140, %32 ], [ -140, %4 ], [ -125, %13 ], [ %.067.ph84, %.thread81 ], [ 0, %84 ]
  call void @llvm.lifetime.end.p0(i64 1, ptr nonnull %8) #9
  call void @llvm.lifetime.end.p0(i64 4, ptr nonnull %7) #9
  call void @llvm.lifetime.end.p0(i64 4, ptr nonnull %6) #9
  call void @llvm.lifetime.end.p0(i64 4, ptr nonnull %5) #9
  ret i32 %.0
}